(iTransaction
Transaction
p0
(dp1
S'Amount'
p2
S'420'
p3
sS'Recipient'
p4
S'oliver'
p5
sS'Sender'
p6
S'god'
p7
sb.(iTransaction
Transaction
p0
(dp1
S'Amount'
p2
S'10'
p3
sS'Recipient'
p4
S'god'
p5
sS'Sender'
p6
S'oliver'
p7
sb.(iTransaction
Transaction
p0
(dp1
S'Amount'
p2
S'420'
p3
sS'Recipient'
p4
S'oliver'
p5
sS'Sender'
p6
S'god'
p7
sb.(iTransaction
Transaction
p0
(dp1
S'Amount'
p2
S'999'
p3
sS'Recipient'
p4
S'ccc'
p5
sS'Sender'
p6
S'ddd'
p7
sb.(iTransaction
Transaction
p0
(dp1
S'Amount'
p2
S'99'
p3
sS'Recipient'
p4
S'obs'
p5
sS'Sender'
p6
S'u'
p7
sb.